target datalayout = "e-m:e-p270:32:32-p271:32:32-p272:64:64-i64:64-i128:128-f80:128-n8:16:32:64-S128"
target triple = "x86_64-pc-linux-gnu"

%"class.std::__cxx11::basic_string" = type { %"struct.std::__cxx11::basic_string<char>::_Alloc_hider", i64, %union.anon }
%"struct.std::__cxx11::basic_string<char>::_Alloc_hider" = type { ptr }
%union.anon = type { i64, [8 x i8] }
%"struct.cmGlobVerificationManager::CacheEntryKey" = type { i8, i8, i8, %"class.std::__cxx11::basic_string", %"class.std::__cxx11::basic_string" }

; Function Attrs: mustprogress nounwind uwtable
define dso_local noundef zeroext i1 @_ZNK25cmGlobVerificationManager13CacheEntryKeyltERKS0_(ptr noundef nonnull align 8 dereferenceable(72) %0, ptr noundef nonnull align 8 dereferenceable(72) %1) #5 align 2 {
  %3 = alloca i1, align 1
  %4 = alloca ptr, align 8
  %5 = alloca ptr, align 8
  store ptr %0, ptr %4, align 8
  store ptr %1, ptr %5, align 8
  %6 = load ptr, ptr %4, align 8
  %7 = getelementptr inbounds %"struct.cmGlobVerificationManager::CacheEntryKey", ptr %6, i32 0, i32 0
  %8 = load i8, ptr %7, align 8
  %9 = trunc i8 %8 to i1
  %10 = zext i1 %9 to i32
  %11 = load ptr, ptr %5, align 8
  %12 = getelementptr inbounds %"struct.cmGlobVerificationManager::CacheEntryKey", ptr %11, i32 0, i32 0
  %13 = load i8, ptr %12, align 8
  %14 = trunc i8 %13 to i1
  %15 = zext i1 %14 to i32
  %16 = icmp slt i32 %10, %15
  br i1 %16, label %17, label %18

17:                                               ; preds = %2
  store i1 true, ptr %3, align 1
  br label %103

18:                                               ; preds = %2
  %19 = getelementptr inbounds %"struct.cmGlobVerificationManager::CacheEntryKey", ptr %6, i32 0, i32 0
  %20 = load i8, ptr %19, align 8
  %21 = trunc i8 %20 to i1
  %22 = zext i1 %21 to i32
  %23 = load ptr, ptr %5, align 8
  %24 = getelementptr inbounds %"struct.cmGlobVerificationManager::CacheEntryKey", ptr %23, i32 0, i32 0
  %25 = load i8, ptr %24, align 8
  %26 = trunc i8 %25 to i1
  %27 = zext i1 %26 to i32
  %28 = icmp sgt i32 %22, %27
  br i1 %28, label %29, label %30

29:                                               ; preds = %18
  store i1 false, ptr %3, align 1
  br label %103

30:                                               ; preds = %18
  %31 = getelementptr inbounds %"struct.cmGlobVerificationManager::CacheEntryKey", ptr %6, i32 0, i32 1
  %32 = load i8, ptr %31, align 1
  %33 = trunc i8 %32 to i1
  %34 = zext i1 %33 to i32
  %35 = load ptr, ptr %5, align 8
  %36 = getelementptr inbounds %"struct.cmGlobVerificationManager::CacheEntryKey", ptr %35, i32 0, i32 1
  %37 = load i8, ptr %36, align 1
  %38 = trunc i8 %37 to i1
  %39 = zext i1 %38 to i32
  %40 = icmp slt i32 %34, %39
  br i1 %40, label %41, label %42

41:                                               ; preds = %30
  store i1 true, ptr %3, align 1
  br label %103

42:                                               ; preds = %30
  %43 = getelementptr inbounds %"struct.cmGlobVerificationManager::CacheEntryKey", ptr %6, i32 0, i32 1
  %44 = load i8, ptr %43, align 1
  %45 = trunc i8 %44 to i1
  %46 = zext i1 %45 to i32
  %47 = load ptr, ptr %5, align 8
  %48 = getelementptr inbounds %"struct.cmGlobVerificationManager::CacheEntryKey", ptr %47, i32 0, i32 1
  %49 = load i8, ptr %48, align 1
  %50 = trunc i8 %49 to i1
  %51 = zext i1 %50 to i32
  %52 = icmp sgt i32 %46, %51
  br i1 %52, label %53, label %54

53:                                               ; preds = %42
  store i1 false, ptr %3, align 1
  br label %103

54:                                               ; preds = %42
  %55 = getelementptr inbounds %"struct.cmGlobVerificationManager::CacheEntryKey", ptr %6, i32 0, i32 2
  %56 = load i8, ptr %55, align 2
  %57 = trunc i8 %56 to i1
  %58 = zext i1 %57 to i32
  %59 = load ptr, ptr %5, align 8
  %60 = getelementptr inbounds %"struct.cmGlobVerificationManager::CacheEntryKey", ptr %59, i32 0, i32 2
  %61 = load i8, ptr %60, align 2
  %62 = trunc i8 %61 to i1
  %63 = zext i1 %62 to i32
  %64 = icmp slt i32 %58, %63
  br i1 %64, label %65, label %66

65:                                               ; preds = %54
  store i1 true, ptr %3, align 1
  br label %103

66:                                               ; preds = %54
  %67 = getelementptr inbounds %"struct.cmGlobVerificationManager::CacheEntryKey", ptr %6, i32 0, i32 2
  %68 = load i8, ptr %67, align 2
  %69 = trunc i8 %68 to i1
  %70 = zext i1 %69 to i32
  %71 = load ptr, ptr %5, align 8
  %72 = getelementptr inbounds %"struct.cmGlobVerificationManager::CacheEntryKey", ptr %71, i32 0, i32 2
  %73 = load i8, ptr %72, align 2
  %74 = trunc i8 %73 to i1
  %75 = zext i1 %74 to i32
  %76 = icmp sgt i32 %70, %75
  br i1 %76, label %77, label %78

77:                                               ; preds = %66
  store i1 false, ptr %3, align 1
  br label %103

78:                                               ; preds = %66
  %79 = getelementptr inbounds %"struct.cmGlobVerificationManager::CacheEntryKey", ptr %6, i32 0, i32 3
  %80 = load ptr, ptr %5, align 8
  %81 = getelementptr inbounds %"struct.cmGlobVerificationManager::CacheEntryKey", ptr %80, i32 0, i32 3
  %82 = call noundef zeroext i1 @_ZStltIcSt11char_traitsIcESaIcEEbRKNSt7__cxx1112basic_stringIT_T0_T1_EESA_(ptr noundef nonnull align 8 dereferenceable(32) %79, ptr noundef nonnull align 8 dereferenceable(32) %81) #3
  br i1 %82, label %83, label %84

83:                                               ; preds = %78
  store i1 true, ptr %3, align 1
  br label %103

84:                                               ; preds = %78
  %85 = getelementptr inbounds %"struct.cmGlobVerificationManager::CacheEntryKey", ptr %6, i32 0, i32 3
  %86 = load ptr, ptr %5, align 8
  %87 = getelementptr inbounds %"struct.cmGlobVerificationManager::CacheEntryKey", ptr %86, i32 0, i32 3
  %88 = call noundef zeroext i1 @_ZStgtIcSt11char_traitsIcESaIcEEbRKNSt7__cxx1112basic_stringIT_T0_T1_EESA_(ptr noundef nonnull align 8 dereferenceable(32) %85, ptr noundef nonnull align 8 dereferenceable(32) %87) #3
  br i1 %88, label %89, label %90

89:                                               ; preds = %84
  store i1 false, ptr %3, align 1
  br label %103

90:                                               ; preds = %84
  %91 = getelementptr inbounds %"struct.cmGlobVerificationManager::CacheEntryKey", ptr %6, i32 0, i32 4
  %92 = load ptr, ptr %5, align 8
  %93 = getelementptr inbounds %"struct.cmGlobVerificationManager::CacheEntryKey", ptr %92, i32 0, i32 4
  %94 = call noundef zeroext i1 @_ZStltIcSt11char_traitsIcESaIcEEbRKNSt7__cxx1112basic_stringIT_T0_T1_EESA_(ptr noundef nonnull align 8 dereferenceable(32) %91, ptr noundef nonnull align 8 dereferenceable(32) %93) #3
  br i1 %94, label %95, label %96

95:                                               ; preds = %90
  store i1 true, ptr %3, align 1
  br label %103

96:                                               ; preds = %90
  %97 = getelementptr inbounds %"struct.cmGlobVerificationManager::CacheEntryKey", ptr %6, i32 0, i32 4
  %98 = load ptr, ptr %5, align 8
  %99 = getelementptr inbounds %"struct.cmGlobVerificationManager::CacheEntryKey", ptr %98, i32 0, i32 4
  %100 = call noundef zeroext i1 @_ZStgtIcSt11char_traitsIcESaIcEEbRKNSt7__cxx1112basic_stringIT_T0_T1_EESA_(ptr noundef nonnull align 8 dereferenceable(32) %97, ptr noundef nonnull align 8 dereferenceable(32) %99) #3
  br i1 %100, label %101, label %102

101:                                              ; preds = %96
  store i1 false, ptr %3, align 1
  br label %103

102:                                              ; preds = %96
  store i1 false, ptr %3, align 1
  br label %103

103:                                              ; preds = %102, %101, %95, %89, %83, %77, %65, %53, %41, %29, %17
  %104 = load i1, ptr %3, align 1
  ret i1 %104
}