; Function Attrs: mustprogress nounwind uwtable
define dso_local noundef zeroext i1 @_ZNK25cmGlobVerificationManager13CacheEntryKeyltERKS0_(ptr noundef nonnull align 8 dereferenceable(72) %0, ptr noundef nonnull align 8 dereferenceable(72) %1) local_unnamed_addr #4 align 2 {
  %3 = load i8, ptr %0, align 8
  %4 = and i8 %3, 1
  %5 = load i8, ptr %1, align 8
  %6 = and i8 %5, 1
  %7 = icmp samesign ult i8 %4, %6
  br i1 %7, label %42, label %8

8:                                                ; preds = %2
  %9 = icmp samesign ugt i8 %4, %6
  br i1 %9, label %42, label %10

10:                                               ; preds = %8
  %11 = getelementptr inbounds nuw i8, ptr %0, i64 1
  %12 = load i8, ptr %11, align 1
  %13 = and i8 %12, 1
  %14 = getelementptr inbounds nuw i8, ptr %1, i64 1
  %15 = load i8, ptr %14, align 1
  %16 = and i8 %15, 1
  %17 = icmp samesign ult i8 %13, %16
  br i1 %17, label %42, label %18

18:                                               ; preds = %10
  %19 = icmp samesign ugt i8 %13, %16
  br i1 %19, label %42, label %20

20:                                               ; preds = %18
  %21 = getelementptr inbounds nuw i8, ptr %0, i64 2
  %22 = load i8, ptr %21, align 2
  %23 = and i8 %22, 1
  %24 = getelementptr inbounds nuw i8, ptr %1, i64 2
  %25 = load i8, ptr %24, align 2
  %26 = and i8 %25, 1
  %27 = icmp samesign ult i8 %23, %26
  br i1 %27, label %42, label %28

28:                                               ; preds = %20
  %29 = icmp samesign ugt i8 %23, %26
  br i1 %29, label %42, label %30

30:                                               ; preds = %28
  %31 = getelementptr inbounds nuw i8, ptr %0, i64 8
  %32 = getelementptr inbounds nuw i8, ptr %1, i64 8
  %33 = tail call noundef zeroext i1 @_ZStltIcSt11char_traitsIcESaIcEEbRKNSt7__cxx1112basic_stringIT_T0_T1_EESA_(ptr noundef nonnull align 8 dereferenceable(32) %31, ptr noundef nonnull align 8 dereferenceable(32) %32) #19
  br i1 %33, label %42, label %34

34:                                               ; preds = %30
  %35 = tail call noundef zeroext i1 @_ZStgtIcSt11char_traitsIcESaIcEEbRKNSt7__cxx1112basic_stringIT_T0_T1_EESA_(ptr noundef nonnull align 8 dereferenceable(32) %31, ptr noundef nonnull align 8 dereferenceable(32) %32) #19
  br i1 %35, label %42, label %36

36:                                               ; preds = %34
  %37 = getelementptr inbounds nuw i8, ptr %0, i64 40
  %38 = getelementptr inbounds nuw i8, ptr %1, i64 40
  %39 = tail call noundef zeroext i1 @_ZStltIcSt11char_traitsIcESaIcEEbRKNSt7__cxx1112basic_stringIT_T0_T1_EESA_(ptr noundef nonnull align 8 dereferenceable(32) %37, ptr noundef nonnull align 8 dereferenceable(32) %38) #19
  br i1 %39, label %42, label %40

40:                                               ; preds = %36
  %41 = tail call noundef zeroext i1 @_ZStgtIcSt11char_traitsIcESaIcEEbRKNSt7__cxx1112basic_stringIT_T0_T1_EESA_(ptr noundef nonnull align 8 dereferenceable(32) %37, ptr noundef nonnull align 8 dereferenceable(32) %38) #19
  br label %42

42:                                               ; preds = %36, %34, %30, %28, %20, %18, %10, %8, %2, %40
  %.0 = phi i1 [ false, %40 ], [ true, %2 ], [ false, %8 ], [ true, %10 ], [ false, %18 ], [ true, %20 ], [ false, %28 ], [ true, %30 ], [ false, %34 ], [ true, %36 ]
  ret i1 %.0
}